#include <math.h>
#include <stdio.h>
#include <stdlib.h>
#include <string.h>

main()
{
   int n,i,j,*a,c=0,t;
   scanf("%d",&n);
   a=(int*)calloc(n+1,sizeof(int));
   for(i=1;i<=n;i++)
    *(a+i)=0;
   for(i=3;i<=n;i+=2)
   {  t=1;
      for(j=2;j*j<=i;j++)
       if(i%j==0){t=0;break;}
      if(t==1)*(a+i)=1;
   }
   for(i=3;i<n-1;i+=2)
   if(*(a+i)==1&&*(a+i+2)==1)c++;
   if(c==0)printf("empty");
   if(c!=0)
   for(i=3;i<n-1;i+=2)
   if(*(a+i)==1&&*(a+i+2)==1)
   {  printf("%d %d",i,i+2);
      c--;
      if(c>0)printf("\n");
   }

}