; ModuleID = '60/569.c'
source_filename = "60/569.c"
target datalayout = "e-m:e-p270:32:32-p271:32:32-p272:64:64-i64:64-f80:128-n8:16:32:64-S128"
target triple = "x86_64-pc-linux-gnu"

@.str = private unnamed_addr constant [3 x i8] c"%d\00", align 1
@.str.1 = private unnamed_addr constant [6 x i8] c"empty\00", align 1
@.str.2 = private unnamed_addr constant [6 x i8] c"%d %d\00", align 1
@.str.3 = private unnamed_addr constant [2 x i8] c"\0A\00", align 1

; Function Attrs: noinline nounwind uwtable
define dso_local i32 @main() #0 {
  %1 = alloca i32, align 4
  %2 = alloca i32, align 4
  %3 = alloca i32, align 4
  %4 = alloca i32, align 4
  %5 = alloca i32*, align 8
  %6 = alloca i32, align 4
  %7 = alloca i32, align 4
  store i32 0, i32* %1, align 4
  store i32 0, i32* %6, align 4
  %8 = call i32 (i8*, ...) @__isoc99_scanf(i8* getelementptr inbounds ([3 x i8], [3 x i8]* @.str, i64 0, i64 0), i32* %2)
  %9 = load i32, i32* %2, align 4
  %10 = add nsw i32 %9, 1
  %11 = sext i32 %10 to i64
  %12 = call noalias i8* @calloc(i64 %11, i64 4) #3
  %13 = bitcast i8* %12 to i32*
  store i32* %13, i32** %5, align 8
  store i32 1, i32* %3, align 4
  br label %14

14:                                               ; preds = %23, %0
  %15 = load i32, i32* %3, align 4
  %16 = load i32, i32* %2, align 4
  %17 = icmp sle i32 %15, %16
  br i1 %17, label %18, label %26

18:                                               ; preds = %14
  %19 = load i32*, i32** %5, align 8
  %20 = load i32, i32* %3, align 4
  %21 = sext i32 %20 to i64
  %22 = getelementptr inbounds i32, i32* %19, i64 %21
  store i32 0, i32* %22, align 4
  br label %23

23:                                               ; preds = %18
  %24 = load i32, i32* %3, align 4
  %25 = add nsw i32 %24, 1
  store i32 %25, i32* %3, align 4
  br label %14

26:                                               ; preds = %14
  store i32 3, i32* %3, align 4
  br label %27

27:                                               ; preds = %57, %26
  %28 = load i32, i32* %3, align 4
  %29 = load i32, i32* %2, align 4
  %30 = icmp sle i32 %28, %29
  br i1 %30, label %31, label %60

31:                                               ; preds = %27
  store i32 1, i32* %7, align 4
  store i32 2, i32* %4, align 4
  br label %32

32:                                               ; preds = %45, %31
  %33 = load i32, i32* %4, align 4
  %34 = load i32, i32* %4, align 4
  %35 = mul nsw i32 %33, %34
  %36 = load i32, i32* %3, align 4
  %37 = icmp sle i32 %35, %36
  br i1 %37, label %38, label %48

38:                                               ; preds = %32
  %39 = load i32, i32* %3, align 4
  %40 = load i32, i32* %4, align 4
  %41 = srem i32 %39, %40
  %42 = icmp eq i32 %41, 0
  br i1 %42, label %43, label %44

43:                                               ; preds = %38
  store i32 0, i32* %7, align 4
  br label %48

44:                                               ; preds = %38
  br label %45

45:                                               ; preds = %44
  %46 = load i32, i32* %4, align 4
  %47 = add nsw i32 %46, 1
  store i32 %47, i32* %4, align 4
  br label %32

48:                                               ; preds = %43, %32
  %49 = load i32, i32* %7, align 4
  %50 = icmp eq i32 %49, 1
  br i1 %50, label %51, label %56

51:                                               ; preds = %48
  %52 = load i32*, i32** %5, align 8
  %53 = load i32, i32* %3, align 4
  %54 = sext i32 %53 to i64
  %55 = getelementptr inbounds i32, i32* %52, i64 %54
  store i32 1, i32* %55, align 4
  br label %56

56:                                               ; preds = %51, %48
  br label %57

57:                                               ; preds = %56
  %58 = load i32, i32* %3, align 4
  %59 = add nsw i32 %58, 2
  store i32 %59, i32* %3, align 4
  br label %27

60:                                               ; preds = %27
  store i32 3, i32* %3, align 4
  br label %61

61:                                               ; preds = %85, %60
  %62 = load i32, i32* %3, align 4
  %63 = load i32, i32* %2, align 4
  %64 = sub nsw i32 %63, 1
  %65 = icmp slt i32 %62, %64
  br i1 %65, label %66, label %88

66:                                               ; preds = %61
  %67 = load i32*, i32** %5, align 8
  %68 = load i32, i32* %3, align 4
  %69 = sext i32 %68 to i64
  %70 = getelementptr inbounds i32, i32* %67, i64 %69
  %71 = load i32, i32* %70, align 4
  %72 = icmp eq i32 %71, 1
  br i1 %72, label %73, label %84

73:                                               ; preds = %66
  %74 = load i32*, i32** %5, align 8
  %75 = load i32, i32* %3, align 4
  %76 = sext i32 %75 to i64
  %77 = getelementptr inbounds i32, i32* %74, i64 %76
  %78 = getelementptr inbounds i32, i32* %77, i64 2
  %79 = load i32, i32* %78, align 4
  %80 = icmp eq i32 %79, 1
  br i1 %80, label %81, label %84

81:                                               ; preds = %73
  %82 = load i32, i32* %6, align 4
  %83 = add nsw i32 %82, 1
  store i32 %83, i32* %6, align 4
  br label %84

84:                                               ; preds = %81, %73, %66
  br label %85

85:                                               ; preds = %84
  %86 = load i32, i32* %3, align 4
  %87 = add nsw i32 %86, 2
  store i32 %87, i32* %3, align 4
  br label %61

88:                                               ; preds = %61
  %89 = load i32, i32* %6, align 4
  %90 = icmp eq i32 %89, 0
  br i1 %90, label %91, label %93

91:                                               ; preds = %88
  %92 = call i32 (i8*, ...) @printf(i8* getelementptr inbounds ([6 x i8], [6 x i8]* @.str.1, i64 0, i64 0))
  br label %93

93:                                               ; preds = %91, %88
  %94 = load i32, i32* %6, align 4
  %95 = icmp ne i32 %94, 0
  br i1 %95, label %96, label %134

96:                                               ; preds = %93
  store i32 3, i32* %3, align 4
  br label %97

97:                                               ; preds = %130, %96
  %98 = load i32, i32* %3, align 4
  %99 = load i32, i32* %2, align 4
  %100 = sub nsw i32 %99, 1
  %101 = icmp slt i32 %98, %100
  br i1 %101, label %102, label %133

102:                                              ; preds = %97
  %103 = load i32*, i32** %5, align 8
  %104 = load i32, i32* %3, align 4
  %105 = sext i32 %104 to i64
  %106 = getelementptr inbounds i32, i32* %103, i64 %105
  %107 = load i32, i32* %106, align 4
  %108 = icmp eq i32 %107, 1
  br i1 %108, label %109, label %129

109:                                              ; preds = %102
  %110 = load i32*, i32** %5, align 8
  %111 = load i32, i32* %3, align 4
  %112 = sext i32 %111 to i64
  %113 = getelementptr inbounds i32, i32* %110, i64 %112
  %114 = getelementptr inbounds i32, i32* %113, i64 2
  %115 = load i32, i32* %114, align 4
  %116 = icmp eq i32 %115, 1
  br i1 %116, label %117, label %129

117:                                              ; preds = %109
  %118 = load i32, i32* %3, align 4
  %119 = load i32, i32* %3, align 4
  %120 = add nsw i32 %119, 2
  %121 = call i32 (i8*, ...) @printf(i8* getelementptr inbounds ([6 x i8], [6 x i8]* @.str.2, i64 0, i64 0), i32 %118, i32 %120)
  %122 = load i32, i32* %6, align 4
  %123 = add nsw i32 %122, -1
  store i32 %123, i32* %6, align 4
  %124 = load i32, i32* %6, align 4
  %125 = icmp sgt i32 %124, 0
  br i1 %125, label %126, label %128

126:                                              ; preds = %117
  %127 = call i32 (i8*, ...) @printf(i8* getelementptr inbounds ([2 x i8], [2 x i8]* @.str.3, i64 0, i64 0))
  br label %128

128:                                              ; preds = %126, %117
  br label %129

129:                                              ; preds = %128, %109, %102
  br label %130

130:                                              ; preds = %129
  %131 = load i32, i32* %3, align 4
  %132 = add nsw i32 %131, 2
  store i32 %132, i32* %3, align 4
  br label %97

133:                                              ; preds = %97
  br label %134

134:                                              ; preds = %133, %93
  %135 = load i32, i32* %1, align 4
  ret i32 %135
}

declare dso_local i32 @__isoc99_scanf(i8*, ...) #1

; Function Attrs: nounwind
declare dso_local noalias i8* @calloc(i64, i64) #2

declare dso_local i32 @printf(i8*, ...) #1


!llvm.module.flags = !{!0}
!llvm.ident = !{!1}

!0 = !{i32 1, !"wchar_size", i32 4}
!1 = !{!"clang version 10.0.0-4ubuntu1 "}
